; Function Attrs: nounwind sspstrong uwtable
define internal noundef i64 @ossl_x509stctx_set_trust(i64 noundef %0, i64 noundef returned %1) #0 {
  %3 = and i64 %1, 1
  %.not.i = icmp eq i64 %3, 0
  br i1 %.not.i, label %6, label %4

4:                                                ; preds = %2
  %5 = tail call i64 @rb_fix2int(i64 noundef %1) #5
  br label %rb_num2int_inline.exit

6:                                                ; preds = %2
  %7 = tail call i64 @rb_num2int(i64 noundef %1) #5
  br label %rb_num2int_inline.exit

rb_num2int_inline.exit:                           ; preds = %4, %6
  %.0.i = phi i64 [ %5, %4 ], [ %7, %6 ]
  %8 = tail call ptr @rb_check_typeddata(i64 noundef %0, ptr noundef nonnull @ossl_x509stctx_type) #5
  %.not = icmp eq ptr %8, null
  br i1 %.not, label %9, label %11

9:                                                ; preds = %rb_num2int_inline.exit
  %10 = load i64, ptr @rb_eRuntimeError, align 8, !tbaa !20
  tail call void (i64, ptr, ...) @ossl_raise(i64 noundef %10, ptr noundef nonnull @.str.52) #7
  unreachable

11:                                               ; preds = %rb_num2int_inline.exit
  %12 = trunc i64 %.0.i to i32
  %13 = tail call i32 @X509_STORE_CTX_set_trust(ptr noundef nonnull %8, i32 noundef %12) #5
  ret i64 %1
}